; Function Attrs: nounwind uwtable
define hidden void @_mi_warning_message(ptr noundef %0, ...) local_unnamed_addr #1 {
  %2 = alloca [1 x %struct.__va_list_tag], align 16
  %3 = load i32, ptr getelementptr inbounds nuw (i8, ptr @options, i64 72), align 8, !tbaa !8
  %4 = icmp eq i32 %3, 0
  br i1 %4, label %5, label %mi_option_get.exit, !prof !13

5:                                                ; preds = %1
  tail call fastcc void @mi_option_init(ptr noundef nonnull getelementptr inbounds nuw (i8, ptr @options, i64 64)) #17
  br label %mi_option_get.exit

mi_option_get.exit:                               ; preds = %1, %5
  %6 = load i64, ptr getelementptr inbounds nuw (i8, ptr @options, i64 64), align 16, !tbaa !14
  %.not = icmp eq i64 %6, 0
  br i1 %.not, label %7, label %19

7:                                                ; preds = %mi_option_get.exit
  %8 = load i32, ptr getelementptr inbounds nuw (i8, ptr @options, i64 8), align 8, !tbaa !8
  %9 = icmp eq i32 %8, 0
  br i1 %9, label %10, label %mi_option_get.exit2, !prof !13

10:                                               ; preds = %7
  tail call fastcc void @mi_option_init(ptr noundef nonnull @options) #17
  br label %mi_option_get.exit2

mi_option_get.exit2:                              ; preds = %7, %10
  %11 = load i64, ptr @options, align 16, !tbaa !14
  %.not3 = icmp eq i64 %11, 0
  br i1 %.not3, label %20, label %12

12:                                               ; preds = %mi_option_get.exit2
  %13 = load i64, ptr @mi_max_warning_count, align 8, !tbaa !15
  %14 = icmp sgt i64 %13, -1
  br i1 %14, label %15, label %19

15:                                               ; preds = %12
  %16 = atomicrmw add ptr @warning_count, i64 1 acq_rel, align 8
  %17 = load i64, ptr @mi_max_warning_count, align 8, !tbaa !15
  %18 = icmp sgt i64 %16, %17
  br i1 %18, label %20, label %19

19:                                               ; preds = %12, %15, %mi_option_get.exit
  call void @llvm.lifetime.start.p0(i64 24, ptr nonnull %2) #18
  call void @llvm.va_start.p0(ptr nonnull %2)
  call fastcc void @mi_vfprintf_thread(ptr noundef nonnull @.str.4, ptr noundef %0, ptr noundef %2) #17
  call void @llvm.va_end.p0(ptr nonnull %2)
  call void @llvm.lifetime.end.p0(i64 24, ptr nonnull %2) #18
  br label %20

20:                                               ; preds = %15, %mi_option_get.exit2, %19
  ret void
}